target datalayout = "e-m:e-p270:32:32-p271:32:32-p272:64:64-i64:64-i128:128-f80:128-n8:16:32:64-S128"
target triple = "x86_64-pc-linux-gnu"

%struct._sapi_module_struct = type { ptr, ptr, ptr, ptr, ptr, ptr, ptr, ptr, ptr, ptr, ptr, ptr, ptr, ptr, ptr, ptr, ptr, ptr, ptr, ptr, ptr, ptr, ptr, ptr, i32, i32, ptr, ptr, ptr, ptr, ptr, ptr, i32, ptr, ptr, ptr }
%struct._sapi_globals_struct = type { ptr, %struct.sapi_request_info, %struct.sapi_headers_struct, i64, i8, i8, %struct.stat, ptr, ptr, ptr, i64, i32, i8, double, %struct._zend_array, %struct._zval_struct, %struct._zend_fcall_info_cache, %struct.sapi_request_parse_body_context }
%struct.sapi_request_info = type { ptr, ptr, ptr, i64, ptr, ptr, ptr, ptr, i8, i8, i8, ptr, ptr, ptr, ptr, ptr, ptr, ptr, i32, i32, ptr, i32 }
%struct.sapi_headers_struct = type { %struct._zend_llist, i32, i8, ptr, ptr }
%struct._zend_llist = type { ptr, ptr, i64, i64, ptr, i8, ptr }
%struct.stat = type { i64, i64, i64, i32, i32, i32, i32, i64, i64, i64, i64, %struct.timespec, %struct.timespec, %struct.timespec, [3 x i64] }
%struct.timespec = type { i64, i64 }
%struct._zend_array = type { %struct._zend_refcounted_h, %union.anon.0, i32, %union.anon.1, i32, i32, i32, i32, i64, ptr }
%struct._zend_refcounted_h = type { i32, %union.anon }
%union.anon = type { i32 }
%union.anon.0 = type { i32 }
%union.anon.1 = type { ptr }
%struct._zval_struct = type { %union._zend_value, %union.anon.3, %union.anon.6 }
%union._zend_value = type { i64 }
%union.anon.3 = type { i32 }
%union.anon.6 = type { i32 }
%struct._zend_fcall_info_cache = type { ptr, ptr, ptr, ptr, ptr }
%struct.sapi_request_parse_body_context = type { i8, [5 x %struct.anon.7] }
%struct.anon.7 = type { i8, i64 }

@sapi_module = dso_local global %struct._sapi_module_struct zeroinitializer, align 8
@sapi_globals = dso_local global %struct._sapi_globals_struct zeroinitializer, align 8

; Function Attrs: nounwind uwtable
define dso_local i64 @sapi_read_post_block(ptr noundef %0, i64 noundef %1) #0 {
  %3 = alloca i64, align 8
  %4 = alloca ptr, align 8
  %5 = alloca i64, align 8
  %6 = alloca i64, align 8
  %7 = alloca i32, align 4
  store ptr %0, ptr %4, align 8, !tbaa !15
  store i64 %1, ptr %5, align 8, !tbaa !95
  call void @llvm.lifetime.start.p0(i64 8, ptr %6) #15
  %8 = load ptr, ptr getelementptr inbounds nuw (%struct._sapi_module_struct, ptr @sapi_module, i32 0, i32 14), align 8, !tbaa !96
  %9 = icmp ne ptr %8, null
  br i1 %9, label %11, label %10

10:                                               ; preds = %2
  store i64 0, ptr %3, align 8
  store i32 1, ptr %7, align 4
  br label %29

11:                                               ; preds = %2
  %12 = load ptr, ptr getelementptr inbounds nuw (%struct._sapi_module_struct, ptr @sapi_module, i32 0, i32 14), align 8, !tbaa !96
  %13 = load ptr, ptr %4, align 8, !tbaa !15
  %14 = load i64, ptr %5, align 8, !tbaa !95
  %15 = call i64 %12(ptr noundef %13, i64 noundef %14)
  store i64 %15, ptr %6, align 8, !tbaa !95
  %16 = load i64, ptr %6, align 8, !tbaa !95
  %17 = icmp ugt i64 %16, 0
  br i1 %17, label %18, label %22

18:                                               ; preds = %11
  %19 = load i64, ptr %6, align 8, !tbaa !95
  %20 = load i64, ptr getelementptr inbounds nuw (%struct._sapi_globals_struct, ptr @sapi_globals, i32 0, i32 3), align 8, !tbaa !97
  %21 = add i64 %20, %19
  store i64 %21, ptr getelementptr inbounds nuw (%struct._sapi_globals_struct, ptr @sapi_globals, i32 0, i32 3), align 8, !tbaa !97
  br label %22

22:                                               ; preds = %18, %11
  %23 = load i64, ptr %6, align 8, !tbaa !95
  %24 = load i64, ptr %5, align 8, !tbaa !95
  %25 = icmp ult i64 %23, %24
  br i1 %25, label %26, label %27

26:                                               ; preds = %22
  store i8 1, ptr getelementptr inbounds nuw (%struct._sapi_globals_struct, ptr @sapi_globals, i32 0, i32 4), align 8, !tbaa !98
  br label %27

27:                                               ; preds = %26, %22
  %28 = load i64, ptr %6, align 8, !tbaa !95
  store i64 %28, ptr %3, align 8
  store i32 1, ptr %7, align 4
  br label %29

29:                                               ; preds = %27, %10
  call void @llvm.lifetime.end.p0(i64 8, ptr %6) #15
  %30 = load i64, ptr %3, align 8
  ret i64 %30
}