; Function Attrs: nounwind uwtable
define dso_local i64 @sapi_read_post_block(ptr noundef %0, i64 noundef %1) local_unnamed_addr #0 {
  %3 = load ptr, ptr getelementptr inbounds nuw (i8, ptr @sapi_module, i64 112), align 8, !tbaa !85
  %.not = icmp eq ptr %3, null
  br i1 %.not, label %12, label %4

4:                                                ; preds = %2
  %5 = tail call i64 %3(ptr noundef %0, i64 noundef %1) #19
  %.not9 = icmp eq i64 %5, 0
  br i1 %.not9, label %9, label %6

6:                                                ; preds = %4
  %7 = load i64, ptr getelementptr inbounds nuw (i8, ptr @sapi_globals, i64 240), align 8, !tbaa !86
  %8 = add i64 %7, %5
  store i64 %8, ptr getelementptr inbounds nuw (i8, ptr @sapi_globals, i64 240), align 8, !tbaa !86
  br label %9

9:                                                ; preds = %6, %4
  %10 = icmp ult i64 %5, %1
  br i1 %10, label %11, label %12

11:                                               ; preds = %9
  store i8 1, ptr getelementptr inbounds nuw (i8, ptr @sapi_globals, i64 248), align 8, !tbaa !87
  br label %12

12:                                               ; preds = %9, %11, %2
  %.0 = phi i64 [ 0, %2 ], [ %5, %11 ], [ %5, %9 ]
  ret i64 %.0
}